(lp0
S'for'
p1
aS'while'
p2
aS'+'
p3
aS'-'
p4
aS'+='
p5
aS';'
p6
aS'*'
p7
aS'/'
p8
aS'-='
p9
aS'<'
p10
aS'>'
p11
aS'<='
p12
aS'>='
p13
aS'=='
p14
aS'='
p15
aS'!='
p16
aS'%'
p17
aS'{'
p18
aS'}'
p19
aS'return'
p20
aS'static'
p21
aS'if'
p22
aS'const'
p23
aS'void'
p24
aS'printf'
p25
aS'else'
p26
aS'break'
p27
aS'continue'
p28
aS'strcmp'
p29
aS'strcpy'
p30
aS'switch'
p31
aS'case'
p32
aS'strcpy_s'
p33
aS'strcmp_s'
p34
aS'&'
p35
aS'?'
p36
a.